; Function Attrs: mustprogress nofree norecurse nosync nounwind willreturn memory(argmem: read) uwtable
define noundef range(i32 0, 2) i32 @_ZN13duckdb_brotli19BrotliDecoderIsUsedEPKNS_24BrotliDecoderStateStructE(ptr noundef readonly captures(none) %0) local_unnamed_addr #11 {
  %2 = load i32, ptr %0, align 8, !tbaa !3
  %.not = icmp eq i32 %2, 0
  br i1 %.not, label %3, label %8

3:                                                ; preds = %1
  %4 = getelementptr inbounds nuw i8, ptr %0, i64 16
  %5 = load i64, ptr %4, align 8, !tbaa !51
  %6 = icmp ne i64 %5, 0
  %7 = zext i1 %6 to i32
  br label %8

8:                                                ; preds = %3, %1
  %9 = phi i32 [ 1, %1 ], [ %7, %3 ]
  ret i32 %9
}